# SymbolsHelper-Confirmed: 6.3.0 amd64
libKF6XmlGui.so.6 libkf6xmlgui6 #MINVER#
* Build-Depends-Package: libkf6xmlgui-dev
 _ZGVZN9QMetaType21registerConverterImplI5QListI12QKeySequenceE9QIterableI13QMetaSequenceEEEbSt8functionIFbPKvPvEES_S_E10unregister@Base 6.0.0
 _ZGVZN9QMetaType23registerMutableViewImplI5QListI12QKeySequenceE9QIterableI13QMetaSequenceEEEbSt8functionIFbPvS8_EES_S_E10unregister@Base 6.0.0
 _ZN10KBugReport11qt_metacallEN11QMetaObject4CallEiPPv@Base 6.0.0
 _ZN10KBugReport11qt_metacastEPKc@Base 6.0.0
 _ZN10KBugReport16staticMetaObjectE@Base 6.0.0
 _ZN10KBugReport6acceptEv@Base 6.0.0
 _ZN10KBugReportC1ERK10KAboutDataP7QWidget@Base 6.0.0
 _ZN10KBugReportC2ERK10KAboutDataP7QWidget@Base 6.0.0
 _ZN10KBugReportD0Ev@Base 6.0.0
 _ZN10KBugReportD1Ev@Base 6.0.0
 _ZN10KBugReportD2Ev@Base 6.0.0
 _ZN10KDEPrivate19initializeLanguagesEv@Base 6.0.0
 _ZN10KDEPrivate30setApplicationSpecificLanguageERK10QByteArray@Base 6.0.0
 _ZN11KMainWindow10closeEventEP11QCloseEvent@Base 6.0.0
 _ZN11KMainWindow10hasMenuBarEv@Base 6.0.0
 _ZN11KMainWindow10memberListEv@Base 6.0.0
 _ZN11KMainWindow10queryCloseEv@Base 6.0.0
 _ZN11KMainWindow10setCaptionERK7QString@Base 6.0.0
 _ZN11KMainWindow10setCaptionERK7QStringb@Base 6.0.0
 _ZN11KMainWindow11qt_metacallEN11QMetaObject4CallEiPPv@Base 6.0.0
 _ZN11KMainWindow11qt_metacastEPKc@Base 6.0.0
 _ZN11KMainWindow13canBeRestoredEi@Base 6.0.0
 _ZN11KMainWindow13keyPressEventEP9QKeyEvent@Base 6.0.0
 _ZN11KMainWindow15setPlainCaptionERK7QString@Base 6.0.0
 _ZN11KMainWindow16appHelpActivatedEv@Base 6.0.0
 _ZN11KMainWindow16setSettingsDirtyEv@Base 6.0.0
 _ZN11KMainWindow16staticMetaObjectE@Base 6.0.0
 _ZN11KMainWindow19classNameOfToplevelEi@Base 6.0.0
 _ZN11KMainWindow19setAutoSaveSettingsERK12KConfigGroupb@Base 6.0.0
 _ZN11KMainWindow19setAutoSaveSettingsERK7QStringb@Base 6.0.0
 _ZN11KMainWindow19setStateConfigGroupERK7QString@Base 6.0.0
 _ZN11KMainWindow20readGlobalPropertiesEP7KConfig@Base 6.0.0
 _ZN11KMainWindow20saveAutoSaveSettingsEv@Base 6.0.0
 _ZN11KMainWindow20saveGlobalPropertiesEP7KConfig@Base 6.0.0
 _ZN11KMainWindow21resetAutoSaveSettingsEv@Base 6.0.0
 _ZN11KMainWindow22readPropertiesInternalEP7KConfigi@Base 6.0.0
 _ZN11KMainWindow22saveMainWindowSettingsER12KConfigGroup@Base 6.0.0
 _ZN11KMainWindow22savePropertiesInternalEP7KConfigi@Base 6.0.0
 _ZN11KMainWindow23applyMainWindowSettingsERK12KConfigGroup@Base 6.0.0
 _ZN11KMainWindow5eventEP6QEvent@Base 6.0.0
 _ZN11KMainWindow7restoreEib@Base 6.0.0
 _ZN11KMainWindow7toolBarERK7QString@Base 6.0.0
 _ZN11KMainWindowC1EP7QWidget6QFlagsIN2Qt10WindowTypeEE@Base 6.0.0
 _ZN11KMainWindowC2EP7QWidget6QFlagsIN2Qt10WindowTypeEE@Base 6.0.0
 _ZN11KMainWindowD0Ev@Base 6.0.0
 _ZN11KMainWindowD1Ev@Base 6.0.0
 _ZN11KMainWindowD2Ev@Base 6.0.0
 _ZN12KEditToolBar11qt_metacallEN11QMetaObject4CallEiPPv@Base 6.0.0
 _ZN12KEditToolBar11qt_metacastEPKc@Base 6.0.0
 _ZN12KEditToolBar15setResourceFileERK7QStringb@Base 6.0.0
 _ZN12KEditToolBar16newToolBarConfigEv@Base 6.0.0
 _ZN12KEditToolBar16staticMetaObjectE@Base 6.0.0
 _ZN12KEditToolBar17setDefaultToolBarERK7QString@Base 6.0.0
 _ZN12KEditToolBar23setGlobalDefaultToolBarERK7QString@Base 6.0.0
 _ZN12KEditToolBar9hideEventEP10QHideEvent@Base 6.0.0
 _ZN12KEditToolBar9showEventEP10QShowEvent@Base 6.0.0
 _ZN12KEditToolBarC1EP14KXMLGUIFactoryP7QWidget@Base 6.0.0
 _ZN12KEditToolBarC1EP17KActionCollectionP7QWidget@Base 6.0.0
 _ZN12KEditToolBarC2EP14KXMLGUIFactoryP7QWidget@Base 6.0.0
 _ZN12KEditToolBarC2EP17KActionCollectionP7QWidget@Base 6.0.0
 _ZN12KEditToolBarD0Ev@Base 6.0.0
 _ZN12KEditToolBarD1Ev@Base 6.0.0
 _ZN12KEditToolBarD2Ev@Base 6.0.0
 _ZN12KUndoActions16createRedoActionEP10QUndoStackP17KActionCollectionRK7QString@Base 6.0.0
 _ZN12KUndoActions16createUndoActionEP10QUndoStackP17KActionCollectionRK7QString@Base 6.0.0
 _ZN13KXMLGUIClient10endXMLPlugEv@Base 6.0.0
 _ZN13KXMLGUIClient10setFactoryEP14KXMLGUIFactory@Base 6.0.0
 _ZN13KXMLGUIClient10setXMLFileERK7QStringbb@Base 6.0.0
 _ZN13KXMLGUIClient12beginXMLPlugEP7QWidget@Base 6.0.0
 _ZN13KXMLGUIClient12childClientsEv@Base 6.0.0
 _ZN13KXMLGUIClient12stateChangedERK7QStringNS_18ReverseStateChangeE@Base 6.0.0
 _ZN13KXMLGUIClient12virtual_hookEiPv@Base 6.0.0
 _ZN13KXMLGUIClient14plugActionListERK7QStringRK5QListIP7QActionE@Base 6.0.0
 _ZN13KXMLGUIClient14replaceXMLFileERK7QStringS2_b@Base 6.0.0
 _ZN13KXMLGUIClient14setDOMDocumentERK12QDomDocumentb@Base 6.0.0
 _ZN13KXMLGUIClient15setLocalXMLFileERK7QString@Base 6.0.0
 _ZN13KXMLGUIClient16prepareXMLUnplugEP7QWidget@Base 6.0.0
 _ZN13KXMLGUIClient16setClientBuilderEP14KXMLGUIBuilder@Base 6.0.0
 _ZN13KXMLGUIClient16setComponentNameERK7QStringS2_@Base 6.0.0
 _ZN13KXMLGUIClient16unplugActionListERK7QString@Base 6.0.0
 _ZN13KXMLGUIClient17findVersionNumberERK7QString@Base 6.0.0
 _ZN13KXMLGUIClient17insertChildClientEPS_@Base 6.0.0
 _ZN13KXMLGUIClient17removeChildClientEPS_@Base 6.0.0
 _ZN13KXMLGUIClient20loadStandardsXmlFileEv@Base 6.0.0
 _ZN13KXMLGUIClient21addStateActionEnabledERK7QStringS2_@Base 6.0.0
 _ZN13KXMLGUIClient21findMostRecentXMLFileERK5QListI7QStringERS1_@Base 6.0.0
 _ZN13KXMLGUIClient22addStateActionDisabledERK7QStringS2_@Base 6.0.0
 _ZN13KXMLGUIClient22setXMLGUIBuildDocumentERK12QDomDocument@Base 6.0.0
 _ZN13KXMLGUIClient24standardsXmlFileLocationEv@Base 6.0.0
 _ZN13KXMLGUIClient26getActionsToChangeForStateERK7QString@Base 6.0.0
 _ZN13KXMLGUIClient6setXMLERK7QStringb@Base 6.0.0
 _ZN13KXMLGUIClient9reloadXMLEv@Base 6.0.0
 _ZN13KXMLGUIClientC1EPS_@Base 6.0.0
 _ZN13KXMLGUIClientC1Ev@Base 6.0.0
 _ZN13KXMLGUIClientC2EPS_@Base 6.0.0
 _ZN13KXMLGUIClientC2Ev@Base 6.0.0
 _ZN13KXMLGUIClientD0Ev@Base 6.0.0
 _ZN13KXMLGUIClientD1Ev@Base 6.0.0
 _ZN13KXMLGUIClientD2Ev@Base 6.0.0
 _ZN13KXmlGuiWindow10guiFactoryEv@Base 6.0.0
 _ZN13KXmlGuiWindow11finalizeGUIEb@Base 6.0.0
 _ZN13KXmlGuiWindow11qt_metacallEN11QMetaObject4CallEiPPv@Base 6.0.0
 _ZN13KXmlGuiWindow11qt_metacastEPKc@Base 6.0.0
 _ZN13KXmlGuiWindow16slotStateChangedERK7QString@Base 6.0.0
 _ZN13KXmlGuiWindow16slotStateChangedERK7QStringb@Base 6.0.0
 _ZN13KXmlGuiWindow16staticMetaObjectE@Base 6.0.0
 _ZN13KXmlGuiWindow17configureToolbarsEv@Base 6.0.0
 _ZN13KXmlGuiWindow17toolBarMenuActionEv@Base 6.0.0
 _ZN13KXmlGuiWindow18setHelpMenuEnabledEb@Base 6.0.0
 _ZN13KXmlGuiWindow20saveNewToolbarConfigEv@Base 6.0.0
 _ZN13KXmlGuiWindow20setCommandBarEnabledEb@Base 6.0.0
 _ZN13KXmlGuiWindow23applyMainWindowSettingsERK12KConfigGroup@Base 6.0.0
 _ZN13KXmlGuiWindow23checkAmbiguousShortcutsEv@Base 6.0.0
 _ZN13KXmlGuiWindow23setupToolbarMenuActionsEv@Base 6.0.0
 _ZN13KXmlGuiWindow29createStandardStatusBarActionEv@Base 6.0.0
 _ZN13KXmlGuiWindow29setStandardToolBarMenuEnabledEb@Base 6.0.0
 _ZN13KXmlGuiWindow5eventEP6QEvent@Base 6.0.0
 _ZN13KXmlGuiWindow8setupGUIE6QFlagsINS_20StandardWindowOptionEERK7QString@Base 6.0.0
 _ZN13KXmlGuiWindow8setupGUIERK5QSize6QFlagsINS_20StandardWindowOptionEERK7QString@Base 6.0.0
 _ZN13KXmlGuiWindow9createGUIERK7QString@Base 6.0.0
 _ZN13KXmlGuiWindowC1EP7QWidget6QFlagsIN2Qt10WindowTypeEE@Base 6.0.0
 _ZN13KXmlGuiWindowC2EP7QWidget6QFlagsIN2Qt10WindowTypeEE@Base 6.0.0
 _ZN13KXmlGuiWindowD0Ev@Base 6.0.0
 _ZN13KXmlGuiWindowD1Ev@Base 6.0.0
 _ZN13KXmlGuiWindowD2Ev@Base 6.0.0
 _ZN13QMetaSequence12MetaSequenceI5QListI12QKeySequenceEE5valueE@Base 6.0.0
 _ZN14KToolTipHelper11eventFilterEP7QObjectP6QEvent@Base 6.0.0
 _ZN14KToolTipHelper11qt_metacallEN11QMetaObject4CallEiPPv@Base 6.0.0
 _ZN14KToolTipHelper11qt_metacastEPKc@Base 6.0.0
 _ZN14KToolTipHelper16staticMetaObjectE@Base 6.0.0
 _ZN14KToolTipHelper17whatsThisHintOnlyEv@Base 6.0.0
 _ZN14KToolTipHelper8instanceEv@Base 6.0.0
 _ZN14KXMLGUIBuilder11finalizeGUIEP13KXMLGUIClient@Base 6.0.0
 _ZN14KXMLGUIBuilder12virtual_hookEiPv@Base 6.0.0
 _ZN14KXMLGUIBuilder15createContainerEP7QWidgetiRK11QDomElementRP7QAction@Base 6.0.0
 _ZN14KXMLGUIBuilder15removeContainerEP7QWidgetS1_R11QDomElementP7QAction@Base 6.0.0
 _ZN14KXMLGUIBuilder16setBuilderClientEP13KXMLGUIClient@Base 6.0.0
 _ZN14KXMLGUIBuilder19createCustomElementEP7QWidgetiRK11QDomElement@Base 6.0.0
 _ZN14KXMLGUIBuilder6widgetEv@Base 6.0.0
 _ZN14KXMLGUIBuilderC1EP7QWidget@Base 6.0.0
 _ZN14KXMLGUIBuilderC2EP7QWidget@Base 6.0.0
 _ZN14KXMLGUIBuilderD0Ev@Base 6.0.0
 _ZN14KXMLGUIBuilderD1Ev@Base 6.0.0
 _ZN14KXMLGUIBuilderD2Ev@Base 6.0.0
 _ZN14KXMLGUIFactory10containersERK7QString@Base 6.0.0
 _ZN14KXMLGUIFactory11clientAddedEP13KXMLGUIClient@Base 6.0.0
 _ZN14KXMLGUIFactory11qt_metacallEN11QMetaObject4CallEiPPv@Base 6.0.0
 _ZN14KXMLGUIFactory11qt_metacastEPKc@Base 6.0.0
 _ZN14KXMLGUIFactory12removeClientEP13KXMLGUIClient@Base 6.0.0
 _ZN14KXMLGUIFactory13clientRemovedEP13KXMLGUIClient@Base 6.0.0
 _ZN14KXMLGUIFactory13makingChangesEb@Base 6.0.0
 _ZN14KXMLGUIFactory14plugActionListEP13KXMLGUIClientRK7QStringRK5QListIP7QActionE@Base 6.0.0
 _ZN14KXMLGUIFactory14readConfigFileERK7QStringS2_@Base 6.0.0
 _ZN14KXMLGUIFactory14resetContainerERK7QStringb@Base 6.0.0
 _ZN14KXMLGUIFactory14saveConfigFileERK12QDomDocumentRK7QStringS5_@Base 6.0.0
 _ZN14KXMLGUIFactory14shortcutsSavedEv@Base 6.0.0
 _ZN14KXMLGUIFactory16findActionByNameER11QDomElementRK7QStringb@Base 6.0.0
 _ZN14KXMLGUIFactory16staticMetaObjectE@Base 6.0.0
 _ZN14KXMLGUIFactory16unplugActionListEP13KXMLGUIClientRK7QString@Base 6.0.0
 _ZN14KXMLGUIFactory20changeShortcutSchemeERK7QString@Base 6.0.0
 _ZN14KXMLGUIFactory23actionPropertiesElementER12QDomDocument@Base 6.0.0
 _ZN14KXMLGUIFactory23refreshActionPropertiesEv@Base 6.0.0
 _ZN14KXMLGUIFactory28showConfigureShortcutsDialogEv@Base 6.0.0
 _ZN14KXMLGUIFactory5resetEv@Base 6.0.0
 _ZN14KXMLGUIFactory9addClientEP13KXMLGUIClient@Base 6.0.0
 _ZN14KXMLGUIFactory9containerERK7QStringP13KXMLGUIClientb@Base 6.0.0
 _ZN14KXMLGUIFactoryC1EP14KXMLGUIBuilderP7QObject@Base 6.0.0
 _ZN14KXMLGUIFactoryC2EP14KXMLGUIBuilderP7QObject@Base 6.0.0
 _ZN14KXMLGUIFactoryD0Ev@Base 6.0.0
 _ZN14KXMLGUIFactoryD1Ev@Base 6.0.0
 _ZN14KXMLGUIFactoryD2Ev@Base 6.0.0
 _ZN15KActionCategory11qt_metacallEN11QMetaObject4CallEiPPv@Base 6.0.0
 _ZN15KActionCategory11qt_metacastEPKc@Base 6.0.0
 _ZN15KActionCategory16staticMetaObjectE@Base 6.0.0
 _ZN15KActionCategory7setTextERK7QString@Base 6.0.0
 _ZN15KActionCategory9addActionEN15KStandardAction14StandardActionEPK7QObjectPKc@Base 6.0.0
 _ZN15KActionCategory9addActionEN15KStandardAction14StandardActionERK7QStringPK7QObjectPKc@Base 6.0.0
 _ZN15KActionCategory9addActionEP7QAction@Base 6.0.0
 _ZN15KActionCategory9addActionERK7QStringP7QAction@Base 6.0.0
 _ZN15KActionCategory9addActionERK7QStringPK7QObjectPKc@Base 6.0.0
 _ZN15KActionCategoryC1ERK7QStringP17KActionCollection@Base 6.0.0
 _ZN15KActionCategoryC2ERK7QStringP17KActionCollection@Base 6.0.0
 _ZN15KActionCategoryD0Ev@Base 6.0.0
 _ZN15KActionCategoryD1Ev@Base 6.0.0
 _ZN15KActionCategoryD2Ev@Base 6.0.0
 _ZN15KShortcutWidget11qt_metacallEN11QMetaObject4CallEiPPv@Base 6.0.0
 _ZN15KShortcutWidget11qt_metacastEPKc@Base 6.0.0
 _ZN15KShortcutWidget11setShortcutERK5QListI12QKeySequenceE@Base 6.0.0
 _ZN15KShortcutWidget13clearShortcutEv@Base 6.0.0
 _ZN15KShortcutWidget15shortcutChangedERK5QListI12QKeySequenceE@Base 6.0.0
 _ZN15KShortcutWidget16staticMetaObjectE@Base 6.0.0
 _ZN15KShortcutWidget18applyStealShortcutEv@Base 6.0.0
 _ZN15KShortcutWidget20setClearButtonsShownEb@Base 6.0.0
 _ZN15KShortcutWidget21isModifierlessAllowedEv@Base 6.0.0
 _ZN15KShortcutWidget22setModifierlessAllowedEb@Base 6.0.0
 _ZN15KShortcutWidget25setCheckActionCollectionsERK5QListIP17KActionCollectionE@Base 6.0.0
 _ZN15KShortcutWidgetC1EP7QWidget@Base 6.0.0
 _ZN15KShortcutWidgetC2EP7QWidget@Base 6.0.0
 _ZN15KShortcutWidgetD0Ev@Base 6.0.0
 _ZN15KShortcutWidgetD1Ev@Base 6.0.0
 _ZN15KShortcutWidgetD2Ev@Base 6.0.0
 _ZN16KShortcutsDialog10showDialogEP17KActionCollectionN16KShortcutsEditor15LetterShortcutsEP7QWidget@Base 6.0.0
 _ZN16KShortcutsDialog11qt_metacallEN11QMetaObject4CallEiPPv@Base 6.0.0
 _ZN16KShortcutsDialog11qt_metacastEPKc@Base 6.0.0
 _ZN16KShortcutsDialog13addCollectionEP17KActionCollectionRK7QString@Base 6.0.0
 _ZN16KShortcutsDialog14refreshSchemesEv@Base 6.0.0
 _ZN16KShortcutsDialog16staticMetaObjectE@Base 6.0.0
 _ZN16KShortcutsDialog19importConfigurationERK7QString@Base 6.0.0
 _ZN16KShortcutsDialog28addActionToSchemesMoreButtonEP7QAction@Base 6.0.0
 _ZN16KShortcutsDialog5savedEv@Base 6.0.0
 _ZN16KShortcutsDialog6acceptEv@Base 6.0.0
 _ZN16KShortcutsDialog9configureEb@Base 6.0.0
 _ZN16KShortcutsDialogC1E6QFlagsIN16KShortcutsEditor10ActionTypeEENS1_15LetterShortcutsEP7QWidget@Base 6.0.0
 _ZN16KShortcutsDialogC1EP7QWidget@Base 6.0.0
 _ZN16KShortcutsDialogC2E6QFlagsIN16KShortcutsEditor10ActionTypeEENS1_15LetterShortcutsEP7QWidget@Base 6.0.0
 _ZN16KShortcutsDialogC2EP7QWidget@Base 6.0.0
 _ZN16KShortcutsDialogD0Ev@Base 6.0.0
 _ZN16KShortcutsDialogD1Ev@Base 6.0.0
 _ZN16KShortcutsDialogD2Ev@Base 6.0.0
 _ZN16KShortcutsEditor10allDefaultEv@Base 6.0.0
 _ZN16KShortcutsEditor11qt_metacallEN11QMetaObject4CallEiPPv@Base 6.0.0
 _ZN16KShortcutsEditor11qt_metacastEPKc@Base 6.0.0
 _ZN16KShortcutsEditor13addCollectionEP17KActionCollectionRK7QString@Base 6.0.0
 _ZN16KShortcutsEditor14setActionTypesE6QFlagsINS_10ActionTypeEE@Base 6.0.0
 _ZN16KShortcutsEditor16clearCollectionsEv@Base 6.0.0
 _ZN16KShortcutsEditor16staticMetaObjectE@Base 6.0.0
 _ZN16KShortcutsEditor4saveEv@Base 6.0.0
 _ZN16KShortcutsEditor4undoEv@Base 6.0.0
 _ZN16KShortcutsEditor9keyChangeEv@Base 6.0.0
 _ZN16KShortcutsEditorC1EP17KActionCollectionP7QWidget6QFlagsINS_10ActionTypeEENS_15LetterShortcutsE@Base 6.0.0
 _ZN16KShortcutsEditorC1EP7QWidget6QFlagsINS_10ActionTypeEENS_15LetterShortcutsE@Base 6.0.0
 _ZN16KShortcutsEditorC2EP17KActionCollectionP7QWidget6QFlagsINS_10ActionTypeEENS_15LetterShortcutsE@Base 6.0.0
 _ZN16KShortcutsEditorC2EP7QWidget6QFlagsINS_10ActionTypeEENS_15LetterShortcutsE@Base 6.0.0
 _ZN16KShortcutsEditorD0Ev@Base 6.0.0
 _ZN16KShortcutsEditorD1Ev@Base 6.0.0
 _ZN16KShortcutsEditorD2Ev@Base 6.0.0
 _ZN17KActionCollection10addActionsERK5QListIP7QActionE@Base 6.0.0
 _ZN17KActionCollection10takeActionEP7QAction@Base 6.0.0
 _ZN17KActionCollection11qt_metacallEN11QMetaObject4CallEiPPv@Base 6.0.0
 _ZN17KActionCollection11qt_metacastEPKc@Base 6.0.0
 _ZN17KActionCollection12readSettingsEP12KConfigGroup@Base 6.0.0
 _ZN17KActionCollection12removeActionEP7QAction@Base 6.0.0
 _ZN17KActionCollection13actionHoveredEP7QAction@Base 6.0.0
 _ZN17KActionCollection13connectNotifyERK11QMetaMethod@Base 6.0.0
 _ZN17KActionCollection14allCollectionsEv@Base 6.0.0
 _ZN17KActionCollection14setConfigGroupERK7QString@Base 6.0.0
 _ZN17KActionCollection15actionTriggeredEP7QAction@Base 6.0.0
 _ZN17KActionCollection15defaultShortcutEP7QAction@Base 6.0.0
 _ZN17KActionCollection15setConfigGlobalEb@Base 6.0.0
 _ZN17KActionCollection16defaultShortcutsEP7QAction@Base 6.0.0
 _ZN17KActionCollection16setComponentNameERK7QString@Base 6.0.0
 _ZN17KActionCollection16staticMetaObjectE@Base 6.0.0
 _ZN17KActionCollection18setDefaultShortcutEP7QActionRK12QKeySequence@Base 6.0.0
 _ZN17KActionCollection19addAssociatedWidgetEP7QWidget@Base 6.0.0
 _ZN17KActionCollection19setDefaultShortcutsEP7QActionRK5QListI12QKeySequenceE@Base 6.0.0
 _ZN17KActionCollection19slotActionTriggeredEv@Base 6.0.0
 _ZN17KActionCollection21importGlobalShortcutsEP12KConfigGroup@Base 6.0.0
 _ZN17KActionCollection22clearAssociatedWidgetsEv@Base 6.0.0
 _ZN17KActionCollection22removeAssociatedWidgetEP7QWidget@Base 6.0.0
 _ZN17KActionCollection23isShortcutsConfigurableEP7QAction@Base 6.0.0
 _ZN17KActionCollection23setComponentDisplayNameERK7QString@Base 6.0.0
 _ZN17KActionCollection24setShortcutsConfigurableEP7QActionb@Base 6.0.0
 _ZN17KActionCollection5clearEv@Base 6.0.0
 _ZN17KActionCollection7changedEv@Base 6.0.0
 _ZN17KActionCollection8insertedEP7QAction@Base 6.0.0
 _ZN17KActionCollection9addActionEN15KStandardAction14StandardActionEPK7QObjectPKc@Base 6.0.0
 _ZN17KActionCollection9addActionEN15KStandardAction14StandardActionERK7QStringPK7QObjectPKc@Base 6.0.0
 _ZN17KActionCollection9addActionERK7QStringP7QAction@Base 6.0.0
 _ZN17KActionCollection9addActionERK7QStringPK7QObjectPKc@Base 6.0.0
 _ZN17KActionCollectionC1EP7QObjectRK7QString@Base 6.0.0
 _ZN17KActionCollectionC2EP7QObjectRK7QString@Base 6.0.0
 _ZN17KActionCollectionD0Ev@Base 6.0.0
 _ZN17KActionCollectionD1Ev@Base 6.0.0
 _ZN17KActionCollectionD2Ev@Base 6.0.0
 _ZN18KAboutPluginDialog11qt_metacallEN11QMetaObject4CallEiPPv@Base 6.0.0
 _ZN18KAboutPluginDialog11qt_metacastEPKc@Base 6.0.0
 _ZN18KAboutPluginDialog16staticMetaObjectE@Base 6.0.0
 _ZN18KAboutPluginDialogC1ERK15KPluginMetaData6QFlagsINS_6OptionEEP7QWidget@Base 6.0.0
 _ZN18KAboutPluginDialogC1ERK15KPluginMetaDataP7QWidget@Base 6.0.0
 _ZN18KAboutPluginDialogC2ERK15KPluginMetaData6QFlagsINS_6OptionEEP7QWidget@Base 6.0.0
 _ZN18KAboutPluginDialogC2ERK15KPluginMetaDataP7QWidget@Base 6.0.0
 _ZN18KAboutPluginDialogD0Ev@Base 6.0.0
 _ZN18KAboutPluginDialogD1Ev@Base 6.0.0
 _ZN18KAboutPluginDialogD2Ev@Base 6.0.0
 _ZN18KKeySequenceWidget11qt_metacallEN11QMetaObject4CallEiPPv@Base 6.0.0
 _ZN18KKeySequenceWidget11qt_metacastEPKc@Base 6.0.0
 _ZN18KKeySequenceWidget13stealShortcutERK12QKeySequenceP7QAction@Base 6.0.0
 _ZN18KKeySequenceWidget14setKeySequenceERK12QKeySequenceNS_10ValidationE@Base 6.0.0
 _ZN18KKeySequenceWidget16clearKeySequenceEv@Base 6.0.0
 _ZN18KKeySequenceWidget16setComponentNameERK7QString@Base 6.0.0
 _ZN18KKeySequenceWidget16staticMetaObjectE@Base 6.0.0
 _ZN18KKeySequenceWidget18applyStealShortcutEv@Base 6.0.0
 _ZN18KKeySequenceWidget18captureKeySequenceEv@Base 6.0.0
 _ZN18KKeySequenceWidget18keySequenceChangedERK12QKeySequence@Base 6.0.0
 _ZN18KKeySequenceWidget19setClearButtonShownEb@Base 6.0.0
 _ZN18KKeySequenceWidget21isModifierlessAllowedEv@Base 6.0.0
 _ZN18KKeySequenceWidget22setModifierOnlyAllowedEb@Base 6.3.0
 _ZN18KKeySequenceWidget22setModifierlessAllowedEb@Base 6.0.0
 _ZN18KKeySequenceWidget25setCheckActionCollectionsERK5QListIP17KActionCollectionE@Base 6.0.0
 _ZN18KKeySequenceWidget27setCheckForConflictsAgainstE6QFlagsINS_12ShortcutTypeEE@Base 6.0.0
 _ZN18KKeySequenceWidget27setMultiKeyShortcutsAllowedEb@Base 6.0.0
 _ZN18KKeySequenceWidget5eventEP6QEvent@Base 6.0.0
 _ZN18KKeySequenceWidgetC1EP7QWidget@Base 6.0.0
 _ZN18KKeySequenceWidgetC2EP7QWidget@Base 6.0.0
 _ZN18KKeySequenceWidgetD0Ev@Base 6.0.0
 _ZN18KKeySequenceWidgetD1Ev@Base 6.0.0
 _ZN18KKeySequenceWidgetD2Ev@Base 6.0.0
 _ZN20KToggleToolBarAction11eventFilterEP7QObjectP6QEvent@Base 6.0.0
 _ZN20KToggleToolBarAction11qt_metacallEN11QMetaObject4CallEiPPv@Base 6.0.0
 _ZN20KToggleToolBarAction11qt_metacastEPKc@Base 6.0.0
 _ZN20KToggleToolBarAction11slotToggledEb@Base 6.0.0
 _ZN20KToggleToolBarAction16staticMetaObjectE@Base 6.0.0
 _ZN20KToggleToolBarAction7toolBarEv@Base 6.0.0
 _ZN20KToggleToolBarActionC1EP8KToolBarRK7QStringP7QObject@Base 6.0.0
 _ZN20KToggleToolBarActionC2EP8KToolBarRK7QStringP7QObject@Base 6.0.0
 _ZN20KToggleToolBarActionD0Ev@Base 6.0.0
 _ZN20KToggleToolBarActionD1Ev@Base 6.0.0
 _ZN20KToggleToolBarActionD2Ev@Base 6.0.0
 _ZN23KAboutApplicationDialog11qt_metacallEN11QMetaObject4CallEiPPv@Base 6.0.0
 _ZN23KAboutApplicationDialog11qt_metacastEPKc@Base 6.0.0
 _ZN23KAboutApplicationDialog16staticMetaObjectE@Base 6.0.0
 _ZN23KAboutApplicationDialogC1ERK10KAboutData6QFlagsINS_6OptionEEP7QWidget@Base 6.0.0
 _ZN23KAboutApplicationDialogC1ERK10KAboutDataP7QWidget@Base 6.0.0
 _ZN23KAboutApplicationDialogC2ERK10KAboutData6QFlagsINS_6OptionEEP7QWidget@Base 6.0.0
 _ZN23KAboutApplicationDialogC2ERK10KAboutDataP7QWidget@Base 6.0.0
 _ZN23KAboutApplicationDialogD0Ev@Base 6.0.0
 _ZN23KAboutApplicationDialogD1Ev@Base 6.0.0
 _ZN23KAboutApplicationDialogD2Ev@Base 6.0.0
 _ZN8KToolBar11actionEventEP12QActionEvent@Base 6.0.0
 _ZN8KToolBar11eventFilterEP7QObjectP6QEvent@Base 6.0.0
 _ZN8KToolBar11qt_metacallEN11QMetaObject4CallEiPPv@Base 6.0.0
 _ZN8KToolBar11qt_metacastEPKc@Base 6.0.0
 _ZN8KToolBar12saveSettingsER12KConfigGroup@Base 6.0.0
 _ZN8KToolBar13applySettingsERK12KConfigGroup@Base 6.0.0
 _ZN8KToolBar13dragMoveEventEP14QDragMoveEvent@Base 6.0.0
 _ZN8KToolBar14dragEnterEventEP15QDragEnterEvent@Base 6.0.0
 _ZN8KToolBar14dragLeaveEventEP15QDragLeaveEvent@Base 6.0.0
 _ZN8KToolBar14mouseMoveEventEP11QMouseEvent@Base 6.0.0
 _ZN8KToolBar14toolBarsLockedEv@Base 6.0.0
 _ZN8KToolBar15addXMLGUIClientEP13KXMLGUIClient@Base 6.0.0
 _ZN8KToolBar15mousePressEventEP11QMouseEvent@Base 6.0.0
 _ZN8KToolBar16contextMenuEventEP17QContextMenuEvent@Base 6.0.0
 _ZN8KToolBar16staticMetaObjectE@Base 6.0.0
 _ZN8KToolBar16toolBarsEditableEv@Base 6.0.0
 _ZN8KToolBar17mouseReleaseEventEP11QMouseEvent@Base 6.0.0
 _ZN8KToolBar17setIconDimensionsEi@Base 6.0.0
 _ZN8KToolBar17setToolBarsLockedEb@Base 6.0.0
 _ZN8KToolBar18removeXMLGUIClientEP13KXMLGUIClient@Base 6.0.0
 _ZN8KToolBar18slotMovableChangedEb@Base 6.0.0
 _ZN8KToolBar19setToolBarsEditableEb@Base 6.0.0
 _ZN8KToolBar23emitToolbarStyleChangedEv@Base 6.0.0
 _ZN8KToolBar9dropEventEP10QDropEvent@Base 6.0.0
 _ZN8KToolBar9loadStateERK11QDomElement@Base 6.0.0
 _ZN8KToolBarC1EP7QWidgetbb@Base 6.0.0
 _ZN8KToolBarC1ERK7QStringP11QMainWindowN2Qt11ToolBarAreaEbbb@Base 6.0.0
 _ZN8KToolBarC1ERK7QStringP7QWidgetb@Base 6.0.0
 _ZN8KToolBarC2EP7QWidgetbb@Base 6.0.0
 _ZN8KToolBarC2ERK7QStringP11QMainWindowN2Qt11ToolBarAreaEbbb@Base 6.0.0
 _ZN8KToolBarC2ERK7QStringP7QWidgetb@Base 6.0.0
 _ZN8KToolBarD0Ev@Base 6.0.0
 _ZN8KToolBarD1Ev@Base 6.0.0
 _ZN8KToolBarD2Ev@Base 6.0.0
 _ZN9KHelpMenu11qt_metacallEN11QMetaObject4CallEiPPv@Base 6.0.0
 _ZN9KHelpMenu11qt_metacastEPKc@Base 6.0.0
 _ZN9KHelpMenu16aboutApplicationEv@Base 6.0.0
 _ZN9KHelpMenu16appHelpActivatedEv@Base 6.0.0
 _ZN9KHelpMenu16staticMetaObjectE@Base 6.0.0
 _ZN9KHelpMenu20contextHelpActivatedEv@Base 6.0.0
 _ZN9KHelpMenu20showAboutApplicationEv@Base 6.0.0
 _ZN9KHelpMenu25switchApplicationLanguageEv@Base 6.0.0
 _ZN9KHelpMenu4menuEv@Base 6.0.0
 _ZN9KHelpMenu6donateEv@Base 6.0.0
 _ZN9KHelpMenu8aboutKDEEv@Base 6.0.0
 _ZN9KHelpMenu9reportBugEv@Base 6.0.0
 _ZN9KHelpMenuC1EP7QWidgetRK10KAboutDatab@Base 6.0.0
 _ZN9KHelpMenuC1EP7QWidgetRK7QStringb@Base 6.0.0
 _ZN9KHelpMenuC2EP7QWidgetRK10KAboutDatab@Base 6.0.0
 _ZN9KHelpMenuC2EP7QWidgetRK7QStringb@Base 6.0.0
 _ZN9KHelpMenuD0Ev@Base 6.0.0
 _ZN9KHelpMenuD1Ev@Base 6.0.0
 _ZN9KHelpMenuD2Ev@Base 6.0.0
 _ZNK10KBugReport10metaObjectEv@Base 6.0.0
 _ZNK11KMainWindow10metaObjectEv@Base 6.0.0
 _ZNK11KMainWindow13autoSaveGroupEv@Base 6.0.0
 _ZNK11KMainWindow13settingsDirtyEv@Base 6.0.0
 _ZNK11KMainWindow16autoSaveSettingsEv@Base 6.0.0
 _ZNK11KMainWindow16stateConfigGroupEv@Base 6.0.0
 _ZNK11KMainWindow19autoSaveConfigGroupEv@Base 6.0.0
 _ZNK11KMainWindow8dbusNameEv@Base 6.0.0
 _ZNK11KMainWindow8toolBarsEv@Base 6.0.0
 (optional=templinst)_ZNK12KConfigGroup9readEntryI10QByteArrayEET_PKcRKS2_@Base 6.0.0
 (optional=templinst)_ZNK12KConfigGroup9readEntryI5QSizeEET_PKcRKS2_@Base 6.0.0
 (optional=templinst)_ZNK12KConfigGroup9readEntryIbEET_PKcRKS1_@Base 6.0.0
 (optional=templinst)_ZNK12KConfigGroup9readEntryIiEET_PKcRKS1_@Base 6.0.0
 _ZNK12KEditToolBar10metaObjectEv@Base 6.0.0
 _ZNK13KXMLGUIClient11domDocumentEv@Base 6.0.0
 _ZNK13KXMLGUIClient12localXMLFileEv@Base 6.0.0
 _ZNK13KXMLGUIClient12parentClientEv@Base 6.0.0
 _ZNK13KXMLGUIClient13clientBuilderEv@Base 6.0.0
 _ZNK13KXMLGUIClient13componentNameEv@Base 6.0.0
 _ZNK13KXMLGUIClient16actionCollectionEv@Base 6.0.0
 _ZNK13KXMLGUIClient19xmlguiBuildDocumentEv@Base 6.0.0
 _ZNK13KXMLGUIClient6actionERK11QDomElement@Base 6.0.0
 _ZNK13KXMLGUIClient6actionERK7QString@Base 6.0.0
 _ZNK13KXMLGUIClient7factoryEv@Base 6.0.0
 _ZNK13KXMLGUIClient7xmlFileEv@Base 6.0.0
 _ZNK13KXmlGuiWindow10metaObjectEv@Base 6.0.0
 _ZNK13KXmlGuiWindow17isHelpMenuEnabledEv@Base 6.0.0
 _ZNK13KXmlGuiWindow19isCommandBarEnabledEv@Base 6.0.0
 _ZNK13KXmlGuiWindow28isStandardToolBarMenuEnabledEv@Base 6.0.0
 _ZNK14KToolTipHelper10metaObjectEv@Base 6.0.0
 _ZNK14KXMLGUIBuilder10customTagsEv@Base 6.0.0
 _ZNK14KXMLGUIBuilder13builderClientEv@Base 6.0.0
 _ZNK14KXMLGUIBuilder13containerTagsEv@Base 6.0.0
 _ZNK14KXMLGUIFactory10metaObjectEv@Base 6.0.0
 _ZNK14KXMLGUIFactory7clientsEv@Base 6.0.0
 _ZNK15KActionCategory10collectionEv@Base 6.0.0
 _ZNK15KActionCategory10metaObjectEv@Base 6.0.0
 _ZNK15KActionCategory4textEv@Base 6.0.0
 _ZNK15KActionCategory7actionsEv@Base 6.0.0
 _ZNK15KShortcutWidget10metaObjectEv@Base 6.0.0
 _ZNK15KShortcutWidget8shortcutEv@Base 6.0.0
 _ZNK16KShortcutsDialog10metaObjectEv@Base 6.0.0
 _ZNK16KShortcutsDialog17actionCollectionsEv@Base 6.0.0
 _ZNK16KShortcutsDialog19exportConfigurationERK7QString@Base 6.0.0
 _ZNK16KShortcutsDialog8sizeHintEv@Base 6.0.0
 _ZNK16KShortcutsEditor10isModifiedEv@Base 6.0.0
 _ZNK16KShortcutsEditor10metaObjectEv@Base 6.0.0
 _ZNK16KShortcutsEditor11actionTypesEv@Base 6.0.0
 _ZNK17KActionCollection10metaObjectEv@Base 6.0.0
 _ZNK17KActionCollection11configGroupEv@Base 6.0.0
 _ZNK17KActionCollection12actionGroupsEv@Base 6.0.0
 _ZNK17KActionCollection13componentNameEv@Base 6.0.0
 _ZNK17KActionCollection13writeSettingsEP12KConfigGroupbP7QAction@Base 6.0.0
 _ZNK17KActionCollection14configIsGlobalEv@Base 6.0.0
 _ZNK17KActionCollection15associateWidgetEP7QWidget@Base 6.0.0
 _ZNK17KActionCollection15parentGUIClientEv@Base 6.0.0
 _ZNK17KActionCollection17associatedWidgetsEv@Base 6.0.0
 _ZNK17KActionCollection19actionsWithoutGroupEv@Base 6.0.0
 _ZNK17KActionCollection20componentDisplayNameEv@Base 6.0.0
 _ZNK17KActionCollection21exportGlobalShortcutsEP12KConfigGroupb@Base 6.0.0
 _ZNK17KActionCollection5countEv@Base 6.0.0
 _ZNK17KActionCollection6actionERK7QString@Base 6.0.0
 _ZNK17KActionCollection6actionEi@Base 6.0.0
 _ZNK17KActionCollection7actionsEv@Base 6.0.0
 _ZNK17KActionCollection7isEmptyEv@Base 6.0.0
 _ZNK18KAboutPluginDialog10metaObjectEv@Base 6.0.0
 _ZNK18KKeySequenceWidget10metaObjectEv@Base 6.0.0
 _ZNK18KKeySequenceWidget11keySequenceEv@Base 6.0.0
 _ZNK18KKeySequenceWidget19modifierOnlyAllowedEv@Base 6.3.0
 _ZNK18KKeySequenceWidget22isKeySequenceAvailableERK12QKeySequence@Base 6.0.0
 _ZNK18KKeySequenceWidget24checkForConflictsAgainstEv@Base 6.0.0
 _ZNK18KKeySequenceWidget24multiKeyShortcutsAllowedEv@Base 6.0.0
 _ZNK20KToggleToolBarAction10metaObjectEv@Base 6.0.0
 _ZNK23KAboutApplicationDialog10metaObjectEv@Base 6.0.0
 _ZNK8KToolBar10mainWindowEv@Base 6.0.0
 _ZNK8KToolBar10metaObjectEv@Base 6.0.0
 _ZNK8KToolBar15iconSizeDefaultEv@Base 6.0.0
 _ZNK8KToolBar9saveStateER11QDomElement@Base 6.0.0
 _ZNK9KHelpMenu10metaObjectEv@Base 6.0.0
 _ZNK9KHelpMenu6actionENS_6MenuIdE@Base 6.0.0
 (optional=templinst)_ZNKSt8_Rb_treeI7QStringSt4pairIKS0_P17KActionCollectionESt10_Select1stIS5_ESt4lessIS0_ESaIS5_EE11equal_rangeERS2_@Base 6.0.0
 (optional=templinst)_ZNKSt8_Rb_treeI7QStringSt4pairIKS0_P7QActionESt10_Select1stIS5_ESt4lessIS0_ESaIS5_EE4findERS2_@Base 6.0.0
 (optional=templinst)_ZNSt8_Rb_treeI7QStringSt4pairIKS0_N13KXMLGUIClient11StateChangeEESt10_Select1stIS5_ESt4lessIS0_ESaIS5_EE16_M_insert_uniqueIS5_EES1_ISt17_Rb_tree_iteratorIS5_EbEOT_@Base 6.0.0
 (optional=templinst)_ZNSt8_Rb_treeI7QStringSt4pairIKS0_N13KXMLGUIClient11StateChangeEESt10_Select1stIS5_ESt4lessIS0_ESaIS5_EE24_M_get_insert_unique_posERS2_@Base 6.0.0
 (optional=templinst)_ZNSt8_Rb_treeI7QStringSt4pairIKS0_N13KXMLGUIClient11StateChangeEESt10_Select1stIS5_ESt4lessIS0_ESaIS5_EE29_M_get_insert_hint_unique_posESt23_Rb_tree_const_iteratorIS5_ERS2_@Base 6.0.0
 (optional=templinst)_ZNSt8_Rb_treeI7QStringSt4pairIKS0_P17KActionCollectionESt10_Select1stIS5_ESt4lessIS0_ESaIS5_EE21_M_insert_equal_lowerIS5_EESt17_Rb_tree_iteratorIS5_EOT_@Base 6.0.0
 (optional=templinst)_ZNSt8_Rb_treeI7QStringSt4pairIKS0_P17KActionCollectionESt10_Select1stIS5_ESt4lessIS0_ESaIS5_EE23_M_get_insert_equal_posERS2_@Base 6.0.0
 (optional=templinst)_ZNSt8_Rb_treeI7QStringSt4pairIKS0_P17KActionCollectionESt10_Select1stIS5_ESt4lessIS0_ESaIS5_EE28_M_get_insert_hint_equal_posESt23_Rb_tree_const_iteratorIS5_ERS2_@Base 6.0.0
 (optional=templinst)_ZNSt8_Rb_treeI7QStringSt4pairIKS0_P7QActionESt10_Select1stIS5_ESt4lessIS0_ESaIS5_EE11equal_rangeERS2_@Base 6.0.0
 (optional=templinst)_ZNSt8_Rb_treeI7QStringSt4pairIKS0_P7QActionESt10_Select1stIS5_ESt4lessIS0_ESaIS5_EE24_M_get_insert_unique_posERS2_@Base 6.0.0
 (optional=templinst)_ZNSt8_Rb_treeI7QStringSt4pairIKS0_P7QActionESt10_Select1stIS5_ESt4lessIS0_ESaIS5_EE29_M_get_insert_hint_unique_posESt23_Rb_tree_const_iteratorIS5_ERS2_@Base 6.0.0
 (optional=templinst)_ZNSt8_Rb_treeI7QStringSt4pairIKS0_S0_ESt10_Select1stIS3_ESt4lessIS0_ESaIS3_EE16_M_insert_uniqueIS3_EES1_ISt17_Rb_tree_iteratorIS3_EbEOT_@Base 6.0.0
 _ZTI10KBugReport@Base 6.0.0
 _ZTI11KMainWindow@Base 6.0.0
 _ZTI12KEditToolBar@Base 6.0.0
 _ZTI13KXMLGUIClient@Base 6.0.0
 _ZTI13KXmlGuiWindow@Base 6.0.0
 _ZTI14KToolTipHelper@Base 6.0.0
 _ZTI14KXMLGUIBuilder@Base 6.0.0
 _ZTI14KXMLGUIFactory@Base 6.0.0
 _ZTI15KActionCategory@Base 6.0.0
 _ZTI15KShortcutWidget@Base 6.0.0
 _ZTI16KShortcutsDialog@Base 6.0.0
 _ZTI16KShortcutsEditor@Base 6.0.0
 _ZTI17KActionCollection@Base 6.0.0
 _ZTI18KAboutPluginDialog@Base 6.0.0
 _ZTI18KKeySequenceWidget@Base 6.0.0
 _ZTI20KToggleToolBarAction@Base 6.0.0
 _ZTI23KAboutApplicationDialog@Base 6.0.0
 _ZTI8KToolBar@Base 6.0.0
 _ZTI9KHelpMenu@Base 6.0.0
 _ZTIZN9QMetaType17registerConverterI5QListI12QKeySequenceE9QIterableI13QMetaSequenceEN9QtPrivate33QSequentialIterableConvertFunctorIS3_EEEEbT1_EUlPKvPvE_@Base 6.0.0
 _ZTIZN9QMetaType19registerMutableViewI5QListI12QKeySequenceE9QIterableI13QMetaSequenceEN9QtPrivate37QSequentialIterableMutableViewFunctorIS3_EEEEbT1_EUlPvSB_E_@Base 6.0.0
 _ZTS10KBugReport@Base 6.0.0
 _ZTS11KMainWindow@Base 6.0.0
 _ZTS12KEditToolBar@Base 6.0.0
 _ZTS13KXMLGUIClient@Base 6.0.0
 _ZTS13KXmlGuiWindow@Base 6.0.0
 _ZTS14KToolTipHelper@Base 6.0.0
 _ZTS14KXMLGUIBuilder@Base 6.0.0
 _ZTS14KXMLGUIFactory@Base 6.0.0
 _ZTS15KActionCategory@Base 6.0.0
 _ZTS15KShortcutWidget@Base 6.0.0
 _ZTS16KShortcutsDialog@Base 6.0.0
 _ZTS16KShortcutsEditor@Base 6.0.0
 _ZTS17KActionCollection@Base 6.0.0
 _ZTS18KAboutPluginDialog@Base 6.0.0
 _ZTS18KKeySequenceWidget@Base 6.0.0
 _ZTS20KToggleToolBarAction@Base 6.0.0
 _ZTS23KAboutApplicationDialog@Base 6.0.0
 _ZTS8KToolBar@Base 6.0.0
 _ZTS9KHelpMenu@Base 6.0.0
 _ZTSZN9QMetaType17registerConverterI5QListI12QKeySequenceE9QIterableI13QMetaSequenceEN9QtPrivate33QSequentialIterableConvertFunctorIS3_EEEEbT1_EUlPKvPvE_@Base 6.0.0
 _ZTSZN9QMetaType19registerMutableViewI5QListI12QKeySequenceE9QIterableI13QMetaSequenceEN9QtPrivate37QSequentialIterableMutableViewFunctorIS3_EEEEbT1_EUlPvSB_E_@Base 6.0.0
 _ZTT13KXmlGuiWindow@Base 6.0.0
 _ZTV10KBugReport@Base 6.0.0
 _ZTV11KMainWindow@Base 6.0.0
 _ZTV12KEditToolBar@Base 6.0.0
 _ZTV13KXMLGUIClient@Base 6.0.0
 _ZTV13KXmlGuiWindow@Base 6.0.0
 _ZTV14KToolTipHelper@Base 6.0.0
 _ZTV14KXMLGUIBuilder@Base 6.0.0
 _ZTV14KXMLGUIFactory@Base 6.0.0
 _ZTV15KActionCategory@Base 6.0.0
 _ZTV15KShortcutWidget@Base 6.0.0
 _ZTV16KShortcutsDialog@Base 6.0.0
 _ZTV16KShortcutsEditor@Base 6.0.0
 _ZTV17KActionCollection@Base 6.0.0
 _ZTV18KAboutPluginDialog@Base 6.0.0
 _ZTV18KKeySequenceWidget@Base 6.0.0
 _ZTV20KToggleToolBarAction@Base 6.0.0
 _ZTV23KAboutApplicationDialog@Base 6.0.0
 _ZTV8KToolBar@Base 6.0.0
 _ZTV9KHelpMenu@Base 6.0.0
 (optional=templinst)_ZZN9QMetaType21registerConverterImplI5QListI12QKeySequenceE9QIterableI13QMetaSequenceEEEbSt8functionIFbPKvPvEES_S_E10unregister@Base 6.0.0
 (optional=templinst)_ZZN9QMetaType23registerMutableViewImplI5QListI12QKeySequenceE9QIterableI13QMetaSequenceEEEbSt8functionIFbPvS8_EES_S_E10unregister@Base 6.0.0
 (c++)"non-virtual thunk to KAboutApplicationDialog::~KAboutApplicationDialog()@Base" 6.0.0
 (c++)"non-virtual thunk to KAboutPluginDialog::~KAboutPluginDialog()@Base" 6.0.0
 (c++)"non-virtual thunk to KBugReport::~KBugReport()@Base" 6.0.0
 (c++)"non-virtual thunk to KEditToolBar::~KEditToolBar()@Base" 6.0.0
 (c++)"non-virtual thunk to KKeySequenceWidget::~KKeySequenceWidget()@Base" 6.0.0
 (c++)"non-virtual thunk to KMainWindow::~KMainWindow()@Base" 6.0.0
 (c++)"non-virtual thunk to KShortcutWidget::~KShortcutWidget()@Base" 6.0.0
 (c++)"non-virtual thunk to KShortcutsDialog::~KShortcutsDialog()@Base" 6.0.0
 (c++)"non-virtual thunk to KShortcutsEditor::~KShortcutsEditor()@Base" 6.0.0
 (c++)"non-virtual thunk to KToolBar::~KToolBar()@Base" 6.0.0
 (c++)"non-virtual thunk to KXmlGuiWindow::~KXmlGuiWindow()@Base" 6.0.0
 (c++)"virtual thunk to KXmlGuiWindow::~KXmlGuiWindow()@Base" 6.0.0
